Certificate:
    Data:
        Version: 3 (0x2)
        Serial Number: 1 (0x1)
    Signature Algorithm: sha1WithRSAEncryption
        Issuer: C=FR, ST=Radius, L=Somewhere, O=Example Inc./emailAddress=admin@example.com, CN=Example Certificate Authority
        Validity
            Not Before: May  1 17:21:43 2014 GMT
            Not After : Jun 30 17:21:43 2014 GMT
        Subject: C=FR, ST=Radius, O=Example Inc., CN=Example Server Certificate/emailAddress=admin@example.com
        Subject Public Key Info:
            Public Key Algorithm: rsaEncryption
                Public-Key: (2048 bit)
                Modulus:
                    00:c1:ed:18:9d:99:92:8e:ba:64:47:7f:9e:53:cb:
                    0c:11:c8:dd:bd:8d:0c:55:4b:da:0a:c8:62:c3:1d:
                    c7:ae:6b:2d:74:f7:43:06:87:31:c4:af:86:1c:5f:
                    41:0f:86:52:e0:bc:9e:7c:6c:f2:f9:15:6f:03:39:
                    70:24:a9:42:1e:e8:cb:17:56:b0:02:ca:ab:00:fc:
                    db:58:0b:17:f9:ad:bd:fd:98:d1:e8:f3:0f:7c:b7:
                    57:a1:b9:35:49:22:00:af:40:b8:cd:a0:19:59:de:
                    2a:0e:4a:bc:13:bb:de:bc:9b:de:c9:9a:22:79:3a:
                    49:e6:5d:1c:eb:9e:03:25:b4:92:c2:3e:9d:24:2d:
                    f0:2e:ab:0c:6b:c5:bc:2e:4f:3c:e6:70:80:30:57:
                    b8:14:8f:a0:27:45:9e:e7:86:a8:54:66:46:84:35:
                    43:8a:22:eb:99:25:32:d9:ac:28:06:1b:d7:9d:8a:
                    c6:83:42:ee:ac:5f:ae:df:28:53:0a:2f:e2:89:cc:
                    57:80:25:72:32:2d:be:cb:f0:6a:fa:14:98:aa:08:
                    fb:a6:0f:7e:6e:cb:8f:21:d0:68:cf:15:f1:46:5e:
                    fd:34:13:dc:2e:83:b4:eb:68:8c:77:a5:07:d1:28:
                    1e:2c:e7:e6:f6:14:e6:8a:a0:88:28:30:7c:ce:34:
                    23:d9
                Exponent: 65537 (0x10001)
        X509v3 extensions:
            X509v3 Extended Key Usage: 
                TLS Web Server Authentication
    Signature Algorithm: sha1WithRSAEncryption
         10:48:11:19:64:fe:38:b6:67:8e:2e:d3:fc:ad:ac:17:62:37:
         5b:bc:aa:69:0d:60:7c:db:bd:35:f7:a1:ce:39:80:c2:6d:2b:
         1c:21:73:47:5e:1c:6b:f5:71:17:57:92:76:7c:e8:f7:bd:95:
         e3:9b:ec:8b:0b:dc:7d:32:41:b4:3c:4e:41:93:06:02:eb:ad:
         95:4c:03:e1:6a:49:6f:a4:b2:91:24:7c:bd:4b:49:1a:e0:71:
         90:f9:4d:77:1f:ce:20:04:d8:f3:89:7b:96:95:4c:0c:92:4a:
         68:63:8f:8a:d0:2b:28:0f:2c:7a:f0:6d:58:f7:3c:35:53:8e:
         e1:d6:e9:cd:f4:46:80:1d:62:e3:d2:19:2a:86:58:e7:59:01:
         bb:0c:de:7b:84:b2:7c:96:d1:3c:9a:25:f7:b5:c0:be:d5:71:
         ca:f0:25:92:6f:d5:88:9f:76:e9:36:70:ff:ae:65:3d:c6:17:
         e3:6c:23:8f:9c:79:73:dc:3f:8f:fd:61:da:f4:97:9e:ab:40:
         f9:32:5c:36:f4:5a:eb:40:a6:56:c1:05:08:10:ca:be:1d:e3:
         c4:d7:8d:72:18:9c:07:40:5c:c4:32:72:8d:2b:9e:e1:63:3d:
         f8:2f:dc:7c:f3:b4:b9:5f:5b:73:01:66:de:2f:4c:6f:e4:c5:
         1f:d8:11:0f
-----BEGIN CERTIFICATE-----
MIIDojCCAoqgAwIBAgIBATANBgkqhkiG9w0BAQUFADCBkzELMAkGA1UEBhMCRlIx
DzANBgNVBAgTBlJhZGl1czESMBAGA1UEBxMJU29tZXdoZXJlMRUwEwYDVQQKEwxF
eGFtcGxlIEluYy4xIDAeBgkqhkiG9w0BCQEWEWFkbWluQGV4YW1wbGUuY29tMSYw
JAYDVQQDEx1FeGFtcGxlIENlcnRpZmljYXRlIEF1dGhvcml0eTAeFw0xNDA1MDEx
NzIxNDNaFw0xNDA2MzAxNzIxNDNaMHwxCzAJBgNVBAYTAkZSMQ8wDQYDVQQIEwZS
YWRpdXMxFTATBgNVBAoTDEV4YW1wbGUgSW5jLjEjMCEGA1UEAxMaRXhhbXBsZSBT
ZXJ2ZXIgQ2VydGlmaWNhdGUxIDAeBgkqhkiG9w0BCQEWEWFkbWluQGV4YW1wbGUu
Y29tMIIBIjANBgkqhkiG9w0BAQEFAAOCAQ8AMIIBCgKCAQEAwe0YnZmSjrpkR3+e
U8sMEcjdvY0MVUvaCshiwx3HrmstdPdDBocxxK+GHF9BD4ZS4LyefGzy+RVvAzlw
JKlCHujLF1awAsqrAPzbWAsX+a29/ZjR6PMPfLdXobk1SSIAr0C4zaAZWd4qDkq8
E7vevJveyZoieTpJ5l0c654DJbSSwj6dJC3wLqsMa8W8Lk885nCAMFe4FI+gJ0We
54aoVGZGhDVDiiLrmSUy2awoBhvXnYrGg0LurF+u3yhTCi/iicxXgCVyMi2+y/Bq
+hSYqgj7pg9+bsuPIdBozxXxRl79NBPcLoO062iMd6UH0SgeLOfm9hTmiqCIKDB8
zjQj2QIDAQABoxcwFTATBgNVHSUEDDAKBggrBgEFBQcDATANBgkqhkiG9w0BAQUF
AAOCAQEAEEgRGWT+OLZnji7T/K2sF2I3W7yqaQ1gfNu9NfehzjmAwm0rHCFzR14c
a/VxF1eSdnzo972V45vsiwvcfTJBtDxOQZMGAuutlUwD4WpJb6SykSR8vUtJGuBx
kPlNdx/OIATY84l7lpVMDJJKaGOPitArKA8sevBtWPc8NVOO4dbpzfRGgB1i49IZ
KoZY51kBuwzee4SyfJbRPJol97XAvtVxyvAlkm/ViJ926TZw/65lPcYX42wjj5x5
c9w/j/1h2vSXnqtA+TJcNvRa60CmVsEFCBDKvh3jxNeNchicB0BcxDJyjSue4WM9
+C/cfPO0uV9bcwFm3i9Mb+TFH9gRDw==
-----END CERTIFICATE-----
